; Function Attrs: mustprogress nofree norecurse nosync nounwind willreturn memory(argmem: read) uwtable
define hidden i32 @_Z5powerRK9s_integerj(ptr noundef nonnull readonly align 4 captures(none) dereferenceable(4) %0, i32 noundef %1) local_unnamed_addr #5 {
  %.not11 = icmp eq i32 %1, 0
  br i1 %.not11, label %._crit_edge, label %.lr.ph.preheader

.lr.ph.preheader:                                 ; preds = %2
  %3 = load i32, ptr %0, align 4, !tbaa !8
  br label %.lr.ph

.lr.ph:                                           ; preds = %.lr.ph.preheader, %.lr.ph
  %.014 = phi i32 [ %7, %.lr.ph ], [ 1, %.lr.ph.preheader ]
  %.sroa.0.013 = phi i32 [ %6, %.lr.ph ], [ %3, %.lr.ph.preheader ]
  %.sroa.09.012 = phi i32 [ %spec.select, %.lr.ph ], [ 1, %.lr.ph.preheader ]
  %4 = and i32 %.014, %1
  %.not6 = icmp eq i32 %4, 0
  %5 = select i1 %.not6, i32 1, i32 %.sroa.0.013
  %spec.select = mul nsw i32 %5, %.sroa.09.012
  %6 = mul nsw i32 %.sroa.0.013, %.sroa.0.013
  %7 = shl i32 %.014, 1
  %.not = icmp ugt i32 %7, %1
  br i1 %.not, label %._crit_edge, label %.lr.ph, !llvm.loop !9

._crit_edge:                                      ; preds = %.lr.ph, %2
  %.sroa.09.0.lcssa = phi i32 [ 1, %2 ], [ %spec.select, %.lr.ph ]
  ret i32 %.sroa.09.0.lcssa
}